target datalayout = "e-m:e-p270:32:32-p271:32:32-p272:64:64-i64:64-i128:128-f80:128-n8:16:32:64-S128"
target triple = "x86_64-pc-linux-gnu"

; Function Attrs: mustprogress uwtable
define void @_Z18duDebugDrawBoxWireP11duDebugDrawffffffjf(ptr noundef %0, float noundef %1, float noundef %2, float noundef %3, float noundef %4, float noundef %5, float noundef %6, i32 noundef %7, float noundef %8) #2 {
  %10 = alloca ptr, align 8
  %11 = alloca float, align 4
  %12 = alloca float, align 4
  %13 = alloca float, align 4
  %14 = alloca float, align 4
  %15 = alloca float, align 4
  %16 = alloca float, align 4
  %17 = alloca i32, align 4
  %18 = alloca float, align 4
  store ptr %0, ptr %10, align 8
  store float %1, ptr %11, align 4
  store float %2, ptr %12, align 4
  store float %3, ptr %13, align 4
  store float %4, ptr %14, align 4
  store float %5, ptr %15, align 4
  store float %6, ptr %16, align 4
  store i32 %7, ptr %17, align 4
  store float %8, ptr %18, align 4
  %19 = load ptr, ptr %10, align 8
  %20 = icmp ne ptr %19, null
  br i1 %20, label %22, label %21

21:                                               ; preds = %9
  br label %40

22:                                               ; preds = %9
  %23 = load ptr, ptr %10, align 8
  %24 = load float, ptr %18, align 4
  %25 = load ptr, ptr %23, align 8
  %26 = getelementptr inbounds ptr, ptr %25, i64 4
  %27 = load ptr, ptr %26, align 8
  call void %27(ptr noundef nonnull align 8 dereferenceable(8) %23, i32 noundef 1, float noundef %24)
  %28 = load ptr, ptr %10, align 8
  %29 = load float, ptr %11, align 4
  %30 = load float, ptr %12, align 4
  %31 = load float, ptr %13, align 4
  %32 = load float, ptr %14, align 4
  %33 = load float, ptr %15, align 4
  %34 = load float, ptr %16, align 4
  %35 = load i32, ptr %17, align 4
  call void @_Z15duAppendBoxWireP11duDebugDrawffffffj(ptr noundef %28, float noundef %29, float noundef %30, float noundef %31, float noundef %32, float noundef %33, float noundef %34, i32 noundef %35)
  %36 = load ptr, ptr %10, align 8
  %37 = load ptr, ptr %36, align 8
  %38 = getelementptr inbounds ptr, ptr %37, i64 9
  %39 = load ptr, ptr %38, align 8
  call void %39(ptr noundef nonnull align 8 dereferenceable(8) %36)
  br label %40

40:                                               ; preds = %22, %21
  ret void
}